target datalayout = "e-m:e-p270:32:32-p271:32:32-p272:64:64-i64:64-i128:128-f80:128-n8:16:32:64-S128"
target triple = "x86_64-unknown-linux-gnu"

; Function Attrs: mustprogress nounwind uwtable
define hidden noundef i32 @_ZNK7datalog12aig_exporter3negEj(ptr noundef nonnull align 8 dereferenceable(624) %this, i32 noundef %id) #5 align 2 {
entry:
  %this.addr = alloca ptr, align 8
  %id.addr = alloca i32, align 4
  store ptr %this, ptr %this.addr, align 8
  store i32 %id, ptr %id.addr, align 4
  %0 = load i32, ptr %id.addr, align 4
  %rem = urem i32 %0, 2
  %tobool = icmp ne i32 %rem, 0
  br i1 %tobool, label %cond.true, label %cond.false

cond.true:                                        ; preds = %entry
  %1 = load i32, ptr %id.addr, align 4
  %sub = sub i32 %1, 1
  br label %cond.end

cond.false:                                       ; preds = %entry
  %2 = load i32, ptr %id.addr, align 4
  %add = add i32 %2, 1
  br label %cond.end

cond.end:                                         ; preds = %cond.false, %cond.true
  %cond = phi i32 [ %sub, %cond.true ], [ %add, %cond.false ]
  ret i32 %cond
}

; Function Attrs: mustprogress uwtable
define hidden noundef i32 @_ZN7datalog12aig_exporter5mk_orEjj(ptr noundef nonnull align 8 dereferenceable(624) %this, i32 noundef %id1, i32 noundef %id2) #4 align 2 {
entry:
  %this.addr = alloca ptr, align 8
  %id1.addr = alloca i32, align 4
  %id2.addr = alloca i32, align 4
  store ptr %this, ptr %this.addr, align 8
  store i32 %id1, ptr %id1.addr, align 4
  store i32 %id2, ptr %id2.addr, align 4
  %this1 = load ptr, ptr %this.addr, align 8
  %0 = load i32, ptr %id1.addr, align 4
  %call = call noundef i32 @_ZNK7datalog12aig_exporter3negEj(ptr noundef nonnull align 8 dereferenceable(624) %this1, i32 noundef %0)
  %1 = load i32, ptr %id2.addr, align 4
  %call2 = call noundef i32 @_ZNK7datalog12aig_exporter3negEj(ptr noundef nonnull align 8 dereferenceable(624) %this1, i32 noundef %1)
  %call3 = call noundef i32 @_ZN7datalog12aig_exporter6mk_andEjj(ptr noundef nonnull align 8 dereferenceable(624) %this1, i32 noundef %call, i32 noundef %call2)
  %call4 = call noundef i32 @_ZNK7datalog12aig_exporter3negEj(ptr noundef nonnull align 8 dereferenceable(624) %this1, i32 noundef %call3)
  ret i32 %call4
}