; Function Attrs: mustprogress uwtable
define hidden noundef i32 @_ZN7datalog12aig_exporter5mk_orEjj(ptr noundef nonnull align 8 dereferenceable(624) %this, i32 noundef %id1, i32 noundef %id2) local_unnamed_addr #3 align 2 {
entry:
  %rem.i = and i32 %id1, 1
  %tobool.not.i = icmp eq i32 %rem.i, 0
  %cond.v.i = select i1 %tobool.not.i, i32 1, i32 -1
  %cond.i = add i32 %cond.v.i, %id1
  %rem.i1 = and i32 %id2, 1
  %tobool.not.i2 = icmp eq i32 %rem.i1, 0
  %cond.v.i3 = select i1 %tobool.not.i2, i32 1, i32 -1
  %cond.i4 = add i32 %cond.v.i3, %id2
  %call3 = tail call noundef i32 @_ZN7datalog12aig_exporter6mk_andEjj(ptr noundef nonnull align 8 dereferenceable(624) %this, i32 noundef %cond.i, i32 noundef %cond.i4)
  %rem.i5 = and i32 %call3, 1
  %tobool.not.i6 = icmp eq i32 %rem.i5, 0
  %cond.v.i7 = select i1 %tobool.not.i6, i32 1, i32 -1
  %cond.i8 = add i32 %cond.v.i7, %call3
  ret i32 %cond.i8
}